target datalayout = "e-m:e-p270:32:32-p271:32:32-p272:64:64-i64:64-i128:128-f80:128-n8:16:32:64-S128"
target triple = "x86_64-pc-linux-gnu"

@reftable_realloc_ptr = internal global ptr null, align 8
@reftable_free_ptr = internal global ptr null, align 8

; Function Attrs: nounwind uwtable
define dso_local void @reftable_free(ptr noundef %0) #0 {
  %2 = alloca ptr, align 8
  store ptr %0, ptr %2, align 8, !tbaa !8
  %3 = load ptr, ptr @reftable_free_ptr, align 8, !tbaa !8
  %4 = icmp ne ptr %3, null
  br i1 %4, label %5, label %8

5:                                                ; preds = %1
  %6 = load ptr, ptr @reftable_free_ptr, align 8, !tbaa !8
  %7 = load ptr, ptr %2, align 8, !tbaa !8
  call void %6(ptr noundef %7)
  br label %10

8:                                                ; preds = %1
  %9 = load ptr, ptr %2, align 8, !tbaa !8
  call void @free(ptr noundef %9) #13
  br label %10

10:                                               ; preds = %8, %5
  ret void
}

; Function Attrs: nounwind uwtable
define dso_local ptr @reftable_realloc(ptr noundef %0, i64 noundef %1) #0 {
  %3 = alloca ptr, align 8
  %4 = alloca ptr, align 8
  %5 = alloca i64, align 8
  store ptr %0, ptr %4, align 8, !tbaa !8
  store i64 %1, ptr %5, align 8, !tbaa !4
  %6 = load i64, ptr %5, align 8, !tbaa !4
  %7 = icmp ne i64 %6, 0
  br i1 %7, label %10, label %8

8:                                                ; preds = %2
  %9 = load ptr, ptr %4, align 8, !tbaa !8
  call void @reftable_free(ptr noundef %9)
  store ptr null, ptr %3, align 8
  br label %22

10:                                               ; preds = %2
  %11 = load ptr, ptr @reftable_realloc_ptr, align 8, !tbaa !8
  %12 = icmp ne ptr %11, null
  br i1 %12, label %13, label %18

13:                                               ; preds = %10
  %14 = load ptr, ptr @reftable_realloc_ptr, align 8, !tbaa !8
  %15 = load ptr, ptr %4, align 8, !tbaa !8
  %16 = load i64, ptr %5, align 8, !tbaa !4
  %17 = call ptr %14(ptr noundef %15, i64 noundef %16)
  store ptr %17, ptr %3, align 8
  br label %22

18:                                               ; preds = %10
  %19 = load ptr, ptr %4, align 8, !tbaa !8
  %20 = load i64, ptr %5, align 8, !tbaa !4
  %21 = call ptr @realloc(ptr noundef %19, i64 noundef %20) #12
  store ptr %21, ptr %3, align 8
  br label %22

22:                                               ; preds = %18, %13, %8
  %23 = load ptr, ptr %3, align 8
  ret ptr %23
}