; Function Attrs: nounwind uwtable
define dso_local ptr @reftable_realloc(ptr noundef %0, i64 noundef %1) local_unnamed_addr #0 {
  %.not = icmp eq i64 %1, 0
  br i1 %.not, label %3, label %7

3:                                                ; preds = %2
  %4 = load ptr, ptr @reftable_free_ptr, align 8, !tbaa !4
  %.not.i = icmp eq ptr %4, null
  br i1 %.not.i, label %6, label %5

5:                                                ; preds = %3
  tail call void %4(ptr noundef %0) #20
  br label %reftable_free.exit

6:                                                ; preds = %3
  tail call void @free(ptr noundef %0) #20
  br label %reftable_free.exit

7:                                                ; preds = %2
  %8 = load ptr, ptr @reftable_realloc_ptr, align 8, !tbaa !4
  %.not8 = icmp eq ptr %8, null
  br i1 %.not8, label %11, label %9

9:                                                ; preds = %7
  %10 = tail call ptr %8(ptr noundef %0, i64 noundef %1) #20
  br label %reftable_free.exit

11:                                               ; preds = %7
  %12 = tail call ptr @realloc(ptr noundef %0, i64 noundef %1) #22
  br label %reftable_free.exit

reftable_free.exit:                               ; preds = %6, %5, %11, %9
  %.0 = phi ptr [ %10, %9 ], [ %12, %11 ], [ null, %5 ], [ null, %6 ]
  ret ptr %.0
}